Certificate:
    Data:
        Version: 1 (0x0)
        Serial Number:
            27:a2:29:be:97:81:20:44:3a:02:e7:8c:83:47:6f:ce:e4:13:f0:a3
        Signature Algorithm: sha256WithRSAEncryption
        Issuer: CN = Asterisk Private CA ca1, O = Asterisk
        Validity
            Not Before: Feb 27 20:11:51 2024 GMT
            Not After : Feb 24 20:11:51 2034 GMT
        Subject: CN = Asterisk Private CA ca1, O = Asterisk
        Subject Public Key Info:
            Public Key Algorithm: rsaEncryption
                Public-Key: (4096 bit)
                Modulus:
                    00:ea:2b:ea:cf:11:ab:b0:e1:45:dc:47:d0:14:f3:
                    91:f6:b4:4a:d5:b1:98:45:03:df:50:db:50:5f:a7:
                    1f:a6:ee:67:ef:c3:87:fc:bb:c2:f3:a8:fe:18:37:
                    5a:fc:09:be:56:b4:da:d6:5b:db:af:a1:9a:ee:c4:
                    29:f3:fd:73:35:41:40:73:f0:03:a9:97:e2:72:6d:
                    94:a6:7f:a8:b0:8c:e9:1a:7a:70:6c:e0:79:28:d9:
                    65:e9:dc:cb:2d:15:43:76:49:67:cd:b0:df:5a:c1:
                    2d:e1:77:ca:1b:eb:04:14:9c:35:ca:72:4b:48:76:
                    39:ce:6b:93:3e:76:de:90:75:03:52:76:a9:c3:5d:
                    2f:b1:be:3d:cf:0b:cb:5e:4b:87:2d:c3:9c:08:a5:
                    f8:20:ec:17:ac:22:f7:80:15:b3:e8:72:6e:1d:53:
                    b5:b9:ca:b3:86:c0:8f:e4:c5:31:5c:1d:79:0f:8f:
                    ab:8f:26:0d:a2:d1:df:ea:a3:89:a3:2c:44:cf:70:
                    2d:57:85:ba:27:79:a8:49:c3:7a:c4:7c:2f:5c:12:
                    4a:45:c7:57:39:be:b3:be:49:91:e3:ff:05:d3:ec:
                    73:a8:b2:de:ea:36:3d:39:1b:8e:b2:d5:64:e9:1b:
                    c8:11:d5:9d:60:76:f0:59:2d:69:f3:71:cf:8a:17:
                    eb:29:af:d0:88:cd:4a:68:bb:0a:e2:58:b9:f9:4c:
                    83:4a:7e:31:00:16:e5:3e:fb:8f:7b:c9:b5:41:c1:
                    34:f5:3f:7a:3c:39:51:85:94:68:d9:cb:b5:b7:54:
                    b4:e1:5c:4d:72:5b:22:06:c9:c4:2d:a8:a4:18:3f:
                    5b:d1:4b:75:e8:dc:e2:3c:17:6b:4b:de:4b:2d:d3:
                    37:0a:e8:99:6e:19:30:28:f5:fc:07:63:81:dc:64:
                    e3:83:9c:04:dd:64:db:71:c3:93:12:c2:e9:4b:a4:
                    c8:64:e2:36:8e:f1:96:ee:b0:22:5e:51:41:d2:3f:
                    ee:61:cf:3b:f2:50:4b:1e:03:31:2f:fc:f4:3e:5d:
                    c6:62:60:fe:29:81:f6:18:7a:72:6f:2c:7a:77:84:
                    57:13:ba:a8:23:c5:61:19:fd:f7:75:ff:e8:04:5a:
                    a4:f8:12:c4:f1:29:f2:07:78:11:54:f3:ed:9e:f6:
                    ed:0a:fe:df:0d:86:31:50:64:cf:2c:44:04:d5:1f:
                    88:65:ce:4b:11:1d:cb:6e:23:3d:bd:b0:f3:a7:c7:
                    91:1a:f6:45:a2:1b:53:a6:ba:c2:c8:ff:7e:f4:54:
                    19:b9:4b:11:e7:ce:f1:e5:3f:01:4a:98:23:a4:4a:
                    5b:2c:ed:6e:3f:29:9f:0a:d9:ec:52:5a:01:2e:40:
                    71:95:33
                Exponent: 65537 (0x10001)
    Signature Algorithm: sha256WithRSAEncryption
    Signature Value:
        35:a8:4e:99:31:ce:d6:71:15:69:5a:93:9a:58:51:ea:bd:9c:
        66:27:5b:6b:ae:ab:7a:bb:8b:4a:2c:75:73:66:a2:be:13:fb:
        f1:d3:5e:ee:cd:45:21:f3:4e:b4:37:43:de:8a:ae:98:99:2b:
        2d:65:95:24:5e:52:0e:88:6a:43:ff:6d:00:a0:32:1c:9e:de:
        c1:83:22:42:63:08:7c:cc:ac:55:93:5a:c7:37:e8:e1:2e:15:
        3d:c8:4e:3a:85:af:c9:ad:91:46:4f:e0:15:52:ae:47:6c:37:
        5d:a0:db:37:d9:0b:27:bf:e1:a8:42:80:05:7e:07:62:86:e2:
        a0:74:35:13:86:e1:7e:48:a8:ec:16:8f:d0:de:15:7c:d0:c5:
        4b:e9:6d:39:a3:55:a8:ba:9d:94:f9:77:a1:e2:ee:b6:24:86:
        1d:44:6a:82:70:ca:67:90:6b:c0:c5:b2:73:c8:12:63:29:f6:
        f8:4e:a6:3c:13:f0:1d:0f:a7:75:99:ce:29:a3:bb:17:b5:9f:
        c4:47:2e:9e:3a:cf:5c:c7:0d:a0:2e:00:ae:83:a3:2c:e7:38:
        49:9f:57:8c:e6:a3:be:b2:ad:f8:e3:4e:74:de:e1:29:8e:73:
        b6:99:0c:b1:b1:ce:f7:db:ea:37:64:68:c3:d5:3f:56:13:51:
        55:99:02:99:8f:92:b9:84:b0:c8:9c:aa:4a:d5:bb:71:e5:6a:
        d6:06:cd:39:ef:53:13:10:13:da:b6:74:11:5b:53:83:11:a6:
        05:13:f6:c1:c0:9e:e1:e5:62:1b:9b:f0:de:27:d1:97:0e:93:
        a2:8f:99:3f:fc:53:91:dc:be:0f:c9:01:05:9c:23:3d:c7:2a:
        2f:f0:a0:46:78:0f:ab:08:2d:bb:0d:d9:cc:7e:b1:f9:9d:9e:
        fc:17:27:be:cf:ce:90:6c:5c:e9:9e:d3:ca:41:3a:c6:89:5b:
        44:11:3a:71:2e:99:ef:34:60:4f:fa:82:e9:4e:4b:d4:c0:7a:
        bc:11:ab:28:b9:bb:90:fb:d9:b0:f7:ed:06:36:ff:31:65:79:
        8a:90:32:3d:dc:c4:66:a4:bc:01:ed:8d:b2:97:2a:90:65:02:
        f7:26:09:1a:71:16:1a:28:ac:f0:fa:19:5a:7d:1e:a6:93:f8:
        e9:61:72:a5:06:bb:cd:db:a1:5e:57:2d:c5:42:59:ff:84:db:
        cb:40:00:e5:c7:ac:23:0c:44:2a:22:da:ad:df:53:51:f5:56:
        81:a1:56:0a:83:28:a6:86:ea:59:3f:0e:fc:16:36:6d:ba:e9:
        df:25:5a:47:16:c9:3b:64:78:da:de:d7:f6:38:18:d1:c4:cd:
        d8:50:aa:a1:4e:37:72:66
-----BEGIN TRUSTED CERTIFICATE-----
MIIE8TCCAtkCFCeiKb6XgSBEOgLnjINHb87kE/CjMA0GCSqGSIb3DQEBCwUAMDUx
IDAeBgNVBAMMF0FzdGVyaXNrIFByaXZhdGUgQ0EgY2ExMREwDwYDVQQKDAhBc3Rl
cmlzazAeFw0yNDAyMjcyMDExNTFaFw0zNDAyMjQyMDExNTFaMDUxIDAeBgNVBAMM
F0FzdGVyaXNrIFByaXZhdGUgQ0EgY2ExMREwDwYDVQQKDAhBc3RlcmlzazCCAiIw
DQYJKoZIhvcNAQEBBQADggIPADCCAgoCggIBAOor6s8Rq7DhRdxH0BTzkfa0StWx
mEUD31DbUF+nH6buZ+/Dh/y7wvOo/hg3WvwJvla02tZb26+hmu7EKfP9czVBQHPw
A6mX4nJtlKZ/qLCM6Rp6cGzgeSjZZencyy0VQ3ZJZ82w31rBLeF3yhvrBBScNcpy
S0h2Oc5rkz523pB1A1J2qcNdL7G+Pc8Ly15Lhy3DnAil+CDsF6wi94AVs+hybh1T
tbnKs4bAj+TFMVwdeQ+Pq48mDaLR3+qjiaMsRM9wLVeFuid5qEnDesR8L1wSSkXH
Vzm+s75JkeP/BdPsc6iy3uo2PTkbjrLVZOkbyBHVnWB28FktafNxz4oX6ymv0IjN
Smi7CuJYuflMg0p+MQAW5T77j3vJtUHBNPU/ejw5UYWUaNnLtbdUtOFcTXJbIgbJ
xC2opBg/W9FLdejc4jwXa0veSy3TNwromW4ZMCj1/Adjgdxk44OcBN1k23HDkxLC
6UukyGTiNo7xlu6wIl5RQdI/7mHPO/JQSx4DMS/89D5dxmJg/imB9hh6cm8seneE
VxO6qCPFYRn993X/6ARapPgSxPEp8gd4EVTz7Z727Qr+3w2GMVBkzyxEBNUfiGXO
SxEdy24jPb2w86fHkRr2RaIbU6a6wsj/fvRUGblLEefO8eU/AUqYI6RKWyztbj8p
nwrZ7FJaAS5AcZUzAgMBAAEwDQYJKoZIhvcNAQELBQADggIBADWoTpkxztZxFWla
k5pYUeq9nGYnW2uuq3q7i0osdXNmor4T+/HTXu7NRSHzTrQ3Q96KrpiZKy1llSRe
Ug6IakP/bQCgMhye3sGDIkJjCHzMrFWTWsc36OEuFT3ITjqFr8mtkUZP4BVSrkds
N12g2zfZCye/4ahCgAV+B2KG4qB0NROG4X5IqOwWj9DeFXzQxUvpbTmjVai6nZT5
d6Hi7rYkhh1EaoJwymeQa8DFsnPIEmMp9vhOpjwT8B0Pp3WZzimjuxe1n8RHLp46
z1zHDaAuAK6DoyznOEmfV4zmo76yrfjjTnTe4SmOc7aZDLGxzvfb6jdkaMPVP1YT
UVWZApmPkrmEsMicqkrVu3HlatYGzTnvUxMQE9q2dBFbU4MRpgUT9sHAnuHlYhub
8N4n0ZcOk6KPmT/8U5Hcvg/JAQWcIz3HKi/woEZ4D6sILbsN2cx+sfmdnvwXJ77P
zpBsXOme08pBOsaJW0QROnEume80YE/6gulOS9TAerwRqyi5u5D72bD37QY2/zFl
eYqQMj3cxGakvAHtjbKXKpBlAvcmCRpxFhoorPD6GVp9HqaT+OlhcqUGu83boV5X
LcVCWf+E28tAAOXHrCMMRCoi2q3fU1H1VoGhVgqDKKaG6lk/DvwWNm266d8lWkcW
yTtkeNre1/Y4GNHEzdhQqqFON3Jm
-----END TRUSTED CERTIFICATE-----
Certificate:
    Data:
        Version: 1 (0x0)
        Serial Number:
            7b:1d:21:14:bd:b9:2f:88:e2:63:60:00:3b:40:e1:fb:3c:f8:34:52
        Signature Algorithm: sha256WithRSAEncryption
        Issuer: CN = Asterisk Private CA ca2, O = Asterisk
        Validity
            Not Before: Feb 27 20:11:52 2024 GMT
            Not After : Feb 24 20:11:52 2034 GMT
        Subject: CN = Asterisk Private CA ca2, O = Asterisk
        Subject Public Key Info:
            Public Key Algorithm: rsaEncryption
                Public-Key: (4096 bit)
                Modulus:
                    00:dd:a0:1a:a0:d7:ca:8b:0c:ab:a3:ef:e6:25:ef:
                    38:f8:23:a8:98:0a:1c:80:3f:74:da:96:70:e3:72:
                    5e:43:aa:a1:f5:4b:8a:fd:3b:9d:98:77:66:b8:d1:
                    48:bd:34:0d:76:27:af:94:d3:14:34:3d:85:84:71:
                    0b:d1:88:bc:57:bc:b4:6a:35:d2:2c:35:46:29:aa:
                    72:f8:60:64:1a:47:43:19:38:80:68:eb:f2:7e:1b:
                    35:7c:2c:a4:7c:6b:9d:71:9f:7e:40:e4:b2:c8:ee:
                    39:58:73:95:8b:96:f7:28:e9:0d:fa:2d:4a:a4:2b:
                    65:45:75:7f:b2:0e:9c:2b:35:3e:ec:e1:da:f0:e8:
                    3c:d1:5a:75:8a:ac:af:f3:c0:d6:9a:7c:48:68:1d:
                    ac:97:3d:94:32:24:6b:06:74:8d:e5:4b:67:4a:cd:
                    b5:fa:b8:d7:f7:b7:48:f1:ee:39:40:d4:dc:68:a7:
                    1f:f2:33:20:52:00:0a:f5:6f:9e:e7:3a:9f:52:c3:
                    ff:fe:a3:de:21:70:3f:f7:43:0b:b6:8b:a7:a5:cb:
                    35:30:f5:a5:45:1b:cf:4e:0e:02:57:db:77:f8:af:
                    44:49:30:19:0e:91:89:8d:fd:d3:37:88:a6:6c:92:
                    e2:12:14:96:26:3e:b2:e2:b2:3e:d4:42:ec:43:b9:
                    6f:3b:cd:a3:50:7f:2d:38:25:b2:58:a8:2e:22:cd:
                    45:cc:31:e2:c4:e7:ac:9f:44:b8:4c:ef:4d:23:3b:
                    e1:35:68:1b:08:c6:3c:88:97:3f:35:c3:a7:5b:c8:
                    2b:f8:5d:2f:cc:1f:5a:1e:65:c0:af:fe:70:71:0e:
                    46:aa:fa:eb:9f:c8:e5:9c:72:3e:87:9b:fb:4f:31:
                    2f:9a:2e:fc:65:cf:60:65:7b:8c:67:84:76:e5:a6:
                    b1:b7:74:d8:7e:f9:cd:a8:22:4e:ea:06:f9:fe:3a:
                    0b:fb:1e:07:3d:d0:04:21:0a:ae:a8:6b:6d:a9:23:
                    1c:03:75:47:66:c4:4d:29:bd:6f:5f:07:9d:90:70:
                    d7:40:96:03:c5:a9:cd:3a:43:14:c3:22:1c:6c:da:
                    c7:ec:76:6d:db:e2:bc:13:8a:86:81:f9:47:2b:1b:
                    53:ad:df:35:57:b5:53:98:7c:02:8f:69:13:f6:5d:
                    1e:53:db:69:5c:3d:c9:d1:99:e5:36:49:72:94:54:
                    d2:a6:8b:e5:f1:70:5e:18:a2:48:85:86:89:f7:8c:
                    70:58:ea:67:27:54:28:a1:cc:aa:16:51:a4:62:d5:
                    d7:fb:2b:b7:dc:c6:22:a4:8c:9c:1d:91:e8:d1:9b:
                    e7:d9:b2:74:9b:bb:25:3e:0d:f5:40:6c:f9:fb:49:
                    18:ba:bb
                Exponent: 65537 (0x10001)
    Signature Algorithm: sha256WithRSAEncryption
    Signature Value:
        60:d7:24:42:2a:75:eb:b4:ae:2a:a9:e6:5d:6c:90:49:85:a2:
        4b:e7:96:49:d6:88:04:73:7b:0e:2c:ec:46:62:a6:ba:61:8d:
        57:1b:1a:d2:05:c0:3d:31:58:a6:ff:50:8a:ae:d8:d8:05:fc:
        15:ab:9b:f4:ae:4f:24:5f:d7:70:f9:4d:7a:37:a7:b8:65:ac:
        93:ba:14:29:b2:70:be:3e:53:72:42:d4:05:0d:c1:d0:af:65:
        d6:60:e7:2d:09:21:fb:d6:89:49:1f:26:bf:3e:2b:ab:ac:cf:
        8d:ef:bc:67:8a:7f:0d:22:f7:81:ab:b0:45:1c:f3:97:0e:b4:
        2f:ea:7c:a5:a9:4a:ce:91:58:e8:a2:0f:9f:89:0a:7b:46:70:
        3f:e4:70:bf:6f:fa:5b:63:e6:c4:12:13:ad:a6:ee:9a:fa:e2:
        12:22:74:05:1f:60:15:f5:cf:1d:32:80:02:10:5b:43:f0:f3:
        dc:25:4a:45:be:fd:0a:7e:67:38:8b:16:e4:60:1c:de:21:3b:
        2b:e7:8c:da:00:00:5b:db:d2:62:5a:97:a7:f7:7a:9b:5f:34:
        f8:fd:d7:89:ac:21:ab:97:2e:dc:9b:b5:37:c0:47:c7:f3:49:
        c0:36:c9:fc:b4:91:ba:14:80:19:e8:97:2d:25:9e:e0:c3:37:
        a3:d2:bf:de:91:bb:57:f5:f6:6d:4f:b4:38:29:1e:6c:55:3e:
        1e:0d:a1:fc:78:03:bb:a8:76:ad:2c:25:17:74:59:f7:63:4d:
        8d:87:62:3e:3f:99:73:e5:09:cc:b7:54:58:d7:a3:fb:df:9b:
        ec:a7:d0:0a:ef:e0:d8:f1:7a:11:a6:c9:e8:f9:91:dd:4b:64:
        a7:4e:d1:6a:eb:92:60:80:8c:b7:63:f1:a8:8b:d4:ca:80:03:
        a9:eb:8f:1a:68:25:bb:d7:b2:73:b7:b3:18:f3:ed:07:61:aa:
        74:6e:cb:a9:41:94:5e:aa:f0:34:d4:59:5d:48:ea:36:0c:44:
        e9:a0:cb:23:92:c0:af:a8:35:42:96:ab:e2:63:b3:17:59:8e:
        8b:02:c3:4d:66:54:d9:cb:f6:c8:52:b6:77:9a:75:f7:47:9e:
        8a:4c:45:07:3b:71:a1:1c:42:59:b5:34:e3:89:5f:15:97:a7:
        63:ce:7f:61:72:56:39:f3:8f:6d:a5:4e:64:1c:95:5f:c2:6f:
        65:84:73:cf:a5:91:cd:12:6f:44:81:97:8b:8a:2d:85:21:ff:
        55:cd:e1:e1:fb:44:3a:fa:d6:10:b8:7a:d4:1d:bd:47:8f:69:
        12:82:4a:90:20:62:8b:68:a4:16:e4:fd:fb:e8:f5:3b:5c:4e:
        a3:71:10:f7:5b:c7:50:19
-----BEGIN TRUSTED CERTIFICATE-----
MIIE8TCCAtkCFHsdIRS9uS+I4mNgADtA4fs8+DRSMA0GCSqGSIb3DQEBCwUAMDUx
IDAeBgNVBAMMF0FzdGVyaXNrIFByaXZhdGUgQ0EgY2EyMREwDwYDVQQKDAhBc3Rl
cmlzazAeFw0yNDAyMjcyMDExNTJaFw0zNDAyMjQyMDExNTJaMDUxIDAeBgNVBAMM
F0FzdGVyaXNrIFByaXZhdGUgQ0EgY2EyMREwDwYDVQQKDAhBc3RlcmlzazCCAiIw
DQYJKoZIhvcNAQEBBQADggIPADCCAgoCggIBAN2gGqDXyosMq6Pv5iXvOPgjqJgK
HIA/dNqWcONyXkOqofVLiv07nZh3ZrjRSL00DXYnr5TTFDQ9hYRxC9GIvFe8tGo1
0iw1RimqcvhgZBpHQxk4gGjr8n4bNXwspHxrnXGffkDkssjuOVhzlYuW9yjpDfot
SqQrZUV1f7IOnCs1Puzh2vDoPNFadYqsr/PA1pp8SGgdrJc9lDIkawZ0jeVLZ0rN
tfq41/e3SPHuOUDU3GinH/IzIFIACvVvnuc6n1LD//6j3iFwP/dDC7aLp6XLNTD1
pUUbz04OAlfbd/ivREkwGQ6RiY390zeIpmyS4hIUliY+suKyPtRC7EO5bzvNo1B/
LTglslioLiLNRcwx4sTnrJ9EuEzvTSM74TVoGwjGPIiXPzXDp1vIK/hdL8wfWh5l
wK/+cHEORqr665/I5ZxyPoeb+08xL5ou/GXPYGV7jGeEduWmsbd02H75zagiTuoG
+f46C/seBz3QBCEKrqhrbakjHAN1R2bETSm9b18HnZBw10CWA8WpzTpDFMMiHGza
x+x2bdvivBOKhoH5RysbU63fNVe1U5h8Ao9pE/ZdHlPbaVw9ydGZ5TZJcpRU0qaL
5fFwXhiiSIWGifeMcFjqZydUKKHMqhZRpGLV1/srt9zGIqSMnB2R6NGb59mydJu7
JT4N9UBs+ftJGLq7AgMBAAEwDQYJKoZIhvcNAQELBQADggIBAGDXJEIqdeu0riqp
5l1skEmFokvnlknWiARzew4s7EZiprphjVcbGtIFwD0xWKb/UIqu2NgF/BWrm/Su
TyRf13D5TXo3p7hlrJO6FCmycL4+U3JC1AUNwdCvZdZg5y0JIfvWiUkfJr8+K6us
z43vvGeKfw0i94GrsEUc85cOtC/qfKWpSs6RWOiiD5+JCntGcD/kcL9v+ltj5sQS
E62m7pr64hIidAUfYBX1zx0ygAIQW0Pw89wlSkW+/Qp+ZziLFuRgHN4hOyvnjNoA
AFvb0mJal6f3eptfNPj914msIauXLtybtTfAR8fzScA2yfy0kboUgBnoly0lnuDD
N6PSv96Ru1f19m1PtDgpHmxVPh4Nofx4A7uodq0sJRd0WfdjTY2HYj4/mXPlCcy3
VFjXo/vfm+yn0Arv4NjxehGmyej5kd1LZKdO0WrrkmCAjLdj8aiL1MqAA6nrjxpo
JbvXsnO3sxjz7QdhqnRuy6lBlF6q8DTUWV1I6jYMROmgyyOSwK+oNUKWq+JjsxdZ
josCw01mVNnL9shStneadfdHnopMRQc7caEcQlm1NOOJXxWXp2POf2FyVjnzj22l
TmQclV/Cb2WEc8+lkc0Sb0SBl4uKLYUh/1XN4eH7RDr61hC4etQdvUePaRKCSpAg
YotopBbk/fvo9TtcTqNxEPdbx1AZ
-----END TRUSTED CERTIFICATE-----
