Certificate:
    Data:
        Version: 1 (0x0)
        Serial Number:
            8b:43:69:a1:ee:20:48:54
    Signature Algorithm: sha256WithRSAEncryption
        Issuer: CN = Asterisk Private CA ca1, O = Asterisk
        Validity
            Not Before: Dec 11 13:15:29 2018 GMT
            Not After : Dec  8 13:15:29 2028 GMT
        Subject: CN = Asterisk Private CA ca1, O = Asterisk
        Subject Public Key Info:
            Public Key Algorithm: rsaEncryption
                Public-Key: (4096 bit)
                Modulus:
                    00:b5:4d:d8:c5:db:a0:98:97:eb:33:30:18:74:20:
                    9e:61:38:8e:17:bf:df:e3:67:87:53:f0:d4:e1:d7:
                    59:08:dd:c0:f2:b7:c3:b5:c6:64:e8:94:b9:00:79:
                    c3:79:db:6c:cc:09:8b:0c:7a:4b:8d:fb:d6:2c:d2:
                    73:68:bc:3f:f5:ff:02:e5:0d:51:5a:b1:34:d2:35:
                    50:87:a8:fd:50:55:ca:fb:b5:c6:a5:fd:2c:be:e8:
                    85:53:11:1a:4b:6f:84:a5:71:3e:3b:b7:fd:1d:7d:
                    08:61:ae:7c:d7:4a:c6:85:e7:0f:47:e3:99:78:b7:
                    2b:1e:22:da:25:eb:1b:c6:ce:a0:44:80:fd:88:79:
                    e3:69:75:b7:16:fe:b9:ff:36:84:2c:54:bb:09:12:
                    01:db:b1:4c:ea:8f:cd:0b:a2:1d:b2:42:a3:d6:59:
                    85:9d:78:9c:dd:cc:2c:fd:f8:ba:e9:e5:21:3e:97:
                    f0:bc:68:f0:9d:fc:cc:25:19:1b:db:33:2c:f4:40:
                    10:b5:27:b4:fc:42:cc:de:b3:02:6a:cb:ce:a9:7d:
                    2e:b8:fc:26:80:09:c6:02:2a:f2:09:39:01:8d:ce:
                    77:8a:8d:ae:a3:7b:f9:9d:1c:b3:50:29:c8:95:4f:
                    90:32:8f:a8:95:6e:aa:06:07:68:c3:d6:a1:a0:c1:
                    c4:ea:dd:c8:69:26:fd:56:44:98:26:cf:e2:da:ea:
                    a7:39:f0:fd:b7:ff:fa:4d:cc:08:8b:e3:d1:3f:f8:
                    95:a3:75:44:14:0d:9f:f0:3c:66:95:de:44:69:7b:
                    91:e4:78:ce:e1:d5:43:f8:81:f8:f9:de:2e:4e:bf:
                    ee:cf:1c:26:8a:4d:9c:56:6e:a9:09:68:48:42:ed:
                    b0:b0:5b:99:ba:42:5b:ab:67:93:73:90:49:83:94:
                    24:ed:a9:d3:85:4e:4b:aa:e7:06:8d:6e:96:f5:17:
                    71:9e:12:08:bd:78:30:61:c0:5e:bb:17:ca:37:9c:
                    a7:50:75:ef:ce:7b:ea:41:86:33:f4:60:aa:47:16:
                    70:bf:f8:58:db:92:63:d2:20:c2:88:12:f6:79:58:
                    9b:73:35:eb:35:ba:9e:3c:96:4e:9f:f8:8b:38:a2:
                    ae:be:f3:53:38:bc:95:39:71:2d:9d:0f:3f:6e:66:
                    96:ba:8f:3b:7b:27:e2:62:fa:f8:de:d6:cf:cd:dc:
                    df:c6:17:28:79:13:80:60:fd:fb:35:a1:33:5e:84:
                    0e:70:6f:49:a4:22:2a:b6:c8:bb:74:98:d9:37:a6:
                    78:35:10:c5:09:24:cb:a5:c1:ac:4c:43:14:64:eb:
                    56:1a:8d:59:03:e8:6a:3d:0c:41:b4:61:b7:24:ac:
                    e8:64:ad
                Exponent: 65537 (0x10001)
    Signature Algorithm: sha256WithRSAEncryption
         2b:6b:f6:4d:89:56:7b:80:44:b6:6d:4f:63:76:94:5c:85:0f:
         fd:31:3f:97:d6:0d:12:a4:7b:6b:19:a9:f9:c4:a2:78:bc:c3:
         a5:98:0e:22:6d:8e:6e:bf:05:df:af:53:06:4a:f1:45:af:bd:
         8d:87:2a:8b:02:1b:33:cc:69:b8:a7:4e:83:0a:b7:5e:04:c4:
         df:10:6e:2c:19:82:eb:c7:5c:c4:9c:71:87:6c:5f:26:27:c5:
         16:a6:c8:57:ec:84:64:60:36:65:26:86:f1:47:58:8c:53:e9:
         34:b8:7b:e9:60:cb:21:1f:bb:db:31:81:4d:22:99:86:b8:c6:
         1e:3f:16:85:46:c9:e5:1d:07:74:57:b8:c5:da:49:fb:7a:21:
         73:ac:d8:95:14:90:d0:2b:6a:e8:6c:33:8c:63:f8:a5:2a:25:
         71:17:1b:08:52:7d:8f:84:7a:cc:ec:9e:2e:87:e9:03:2c:26:
         dd:33:f1:0c:38:94:b8:69:56:23:8f:5d:6c:9b:91:00:b4:79:
         c2:8f:21:ac:7a:aa:85:4b:3a:d6:d3:55:2a:28:f3:f3:05:42:
         f4:67:66:dc:30:22:41:5b:56:c8:93:bf:79:d5:67:92:46:6f:
         06:05:72:0f:a5:cf:4d:33:1c:9a:37:f5:40:71:7c:bd:8b:59:
         29:7e:e6:55:83:a8:d7:b1:51:75:cc:f3:2e:05:10:24:0c:78:
         2b:93:22:2e:df:20:91:72:4e:43:d4:fe:7d:7f:1c:1f:1c:5d:
         e9:0a:fc:8c:53:b3:eb:a5:e4:bd:df:e4:3f:70:b1:5e:e7:e5:
         86:f6:f0:61:18:81:58:24:8d:c1:e8:b1:68:a3:4a:60:33:ed:
         18:9b:d0:f1:e3:43:21:a3:ca:53:91:60:90:75:cc:b7:8a:09:
         0a:69:32:d3:88:5f:19:c5:ae:6e:2c:c1:9b:e4:69:d9:66:84:
         4e:31:40:a4:ad:c6:fb:1c:7c:70:fe:4d:5e:80:8a:58:88:0e:
         e2:10:71:dd:04:28:df:5d:2b:9a:35:ea:3c:bd:c9:86:ad:45:
         2b:43:92:3a:6a:1d:ef:bb:e6:1e:85:f0:a3:83:94:a9:a0:30:
         39:dd:33:f3:6c:fd:43:67:ce:a5:6f:73:01:f5:6e:69:fc:fe:
         e9:42:58:b9:cd:c8:02:63:3a:6a:a8:a7:f6:6b:fd:03:29:e5:
         ac:74:fa:51:20:5b:bf:9c:f9:73:ed:e7:75:03:ff:1d:94:06:
         75:b3:31:c3:0f:40:35:fe:a0:65:c5:20:37:1e:3a:e9:91:ab:
         e0:18:64:6b:fa:12:e6:46:c7:fe:01:c7:a4:76:3a:21:4e:c6:
         33:36:44:13:fc:ed:0b:c9
-----BEGIN TRUSTED CERTIFICATE-----
MIIE5jCCAs4CCQCLQ2mh7iBIVDANBgkqhkiG9w0BAQsFADA1MSAwHgYDVQQDDBdB
c3RlcmlzayBQcml2YXRlIENBIGNhMTERMA8GA1UECgwIQXN0ZXJpc2swHhcNMTgx
MjExMTMxNTI5WhcNMjgxMjA4MTMxNTI5WjA1MSAwHgYDVQQDDBdBc3RlcmlzayBQ
cml2YXRlIENBIGNhMTERMA8GA1UECgwIQXN0ZXJpc2swggIiMA0GCSqGSIb3DQEB
AQUAA4ICDwAwggIKAoICAQC1TdjF26CYl+szMBh0IJ5hOI4Xv9/jZ4dT8NTh11kI
3cDyt8O1xmTolLkAecN522zMCYsMekuN+9Ys0nNovD/1/wLlDVFasTTSNVCHqP1Q
Vcr7tcal/Sy+6IVTERpLb4SlcT47t/0dfQhhrnzXSsaF5w9H45l4tyseItol6xvG
zqBEgP2IeeNpdbcW/rn/NoQsVLsJEgHbsUzqj80Loh2yQqPWWYWdeJzdzCz9+Lrp
5SE+l/C8aPCd/MwlGRvbMyz0QBC1J7T8QszeswJqy86pfS64/CaACcYCKvIJOQGN
zneKja6je/mdHLNQKciVT5Ayj6iVbqoGB2jD1qGgwcTq3chpJv1WRJgmz+La6qc5
8P23//pNzAiL49E/+JWjdUQUDZ/wPGaV3kRpe5HkeM7h1UP4gfj53i5Ov+7PHCaK
TZxWbqkJaEhC7bCwW5m6QlurZ5NzkEmDlCTtqdOFTkuq5waNbpb1F3GeEgi9eDBh
wF67F8o3nKdQde/Oe+pBhjP0YKpHFnC/+FjbkmPSIMKIEvZ5WJtzNes1up48lk6f
+Is4oq6+81M4vJU5cS2dDz9uZpa6jzt7J+Ji+vje1s/N3N/GFyh5E4Bg/fs1oTNe
hA5wb0mkIiq2yLt0mNk3png1EMUJJMulwaxMQxRk61YajVkD6Go9DEG0YbckrOhk
rQIDAQABMA0GCSqGSIb3DQEBCwUAA4ICAQAra/ZNiVZ7gES2bU9jdpRchQ/9MT+X
1g0SpHtrGan5xKJ4vMOlmA4ibY5uvwXfr1MGSvFFr72NhyqLAhszzGm4p06DCrde
BMTfEG4sGYLrx1zEnHGHbF8mJ8UWpshX7IRkYDZlJobxR1iMU+k0uHvpYMshH7vb
MYFNIpmGuMYePxaFRsnlHQd0V7jF2kn7eiFzrNiVFJDQK2robDOMY/ilKiVxFxsI
Un2PhHrM7J4uh+kDLCbdM/EMOJS4aVYjj11sm5EAtHnCjyGseqqFSzrW01UqKPPz
BUL0Z2bcMCJBW1bIk7951WeSRm8GBXIPpc9NMxyaN/VAcXy9i1kpfuZVg6jXsVF1
zPMuBRAkDHgrkyIu3yCRck5D1P59fxwfHF3pCvyMU7PrpeS93+Q/cLFe5+WG9vBh
GIFYJI3B6LFoo0pgM+0Ym9Dx40Mho8pTkWCQdcy3igkKaTLTiF8Zxa5uLMGb5GnZ
ZoROMUCkrcb7HHxw/k1egIpYiA7iEHHdBCjfXSuaNeo8vcmGrUUrQ5I6ah3vu+Ye
hfCjg5SpoDA53TPzbP1DZ86lb3MB9W5p/P7pQli5zcgCYzpqqKf2a/0DKeWsdPpR
IFu/nPlz7ed1A/8dlAZ1szHDD0A1/qBlxSA3HjrpkavgGGRr+hLmRsf+Acekdjoh
TsYzNkQT/O0LyQ==
-----END TRUSTED CERTIFICATE-----
Certificate:
    Data:
        Version: 1 (0x0)
        Serial Number:
            85:fe:ce:8d:a3:ac:0d:6a
    Signature Algorithm: sha256WithRSAEncryption
        Issuer: CN = Asterisk Private CA ca2, O = Asterisk
        Validity
            Not Before: Dec 11 13:15:29 2018 GMT
            Not After : Dec  8 13:15:29 2028 GMT
        Subject: CN = Asterisk Private CA ca2, O = Asterisk
        Subject Public Key Info:
            Public Key Algorithm: rsaEncryption
                Public-Key: (4096 bit)
                Modulus:
                    00:ba:d1:98:a6:be:04:c2:06:ee:af:b7:c3:6d:df:
                    84:aa:ed:8f:14:49:34:fc:f7:ad:45:e7:c7:08:96:
                    c5:f3:5d:5e:2d:f3:44:da:6b:e3:f9:8e:dc:e3:31:
                    59:36:f0:78:c1:18:e6:b2:88:b0:41:c7:0b:50:8a:
                    4f:f3:18:cf:7f:52:df:06:fb:f9:e5:1f:d7:a8:26:
                    0d:1b:cb:33:6e:02:24:9e:d0:08:cc:5f:cc:c8:5f:
                    1b:23:21:0b:af:67:1b:13:5a:40:c8:66:71:9c:a6:
                    ec:63:d5:6c:34:bf:e6:7a:0a:60:86:72:49:11:5d:
                    ad:3f:1e:9c:df:57:2f:c9:a5:33:cf:ba:80:c7:c5:
                    dd:b1:c8:83:f5:d8:a7:57:d7:30:1b:79:11:9a:dc:
                    1c:9f:9d:42:15:a9:53:70:5c:ad:ae:f0:ba:b0:ed:
                    52:cd:6e:bb:58:98:8c:17:92:01:59:98:6c:28:86:
                    f1:b7:df:3b:7f:4a:fb:d8:d4:a8:d6:69:c0:b6:92:
                    f4:78:c7:da:6b:84:30:9b:5a:31:f8:eb:9d:dc:b3:
                    0f:84:17:12:2d:64:8e:e1:f7:3f:b5:41:60:1a:d8:
                    71:59:70:01:9e:89:f8:5b:2c:15:80:03:d9:0d:af:
                    cc:25:c6:3a:46:e7:f1:dd:6a:ac:46:44:1b:3b:a3:
                    38:42:fb:ec:23:0e:2f:8c:1f:a8:e7:1c:80:a8:b6:
                    4a:ce:b3:fb:0c:28:94:19:bc:b1:8b:02:ec:f6:6f:
                    c5:7d:45:b5:45:9d:bc:85:f5:b1:8b:a4:ab:2f:d1:
                    8b:07:2f:82:a3:a4:f8:00:a6:5d:c8:c0:26:42:e4:
                    b6:1e:aa:32:c3:44:7c:66:5f:94:45:c4:f2:a9:33:
                    08:c0:f9:8e:55:08:f7:09:1c:83:29:a5:0d:ac:6f:
                    9c:90:39:cb:4c:11:5e:4f:4e:21:14:5e:19:91:c5:
                    e3:fe:ad:8f:e0:35:0f:54:e5:c5:69:96:c6:1c:e2:
                    f0:92:70:39:ec:3b:e8:53:9d:17:4c:89:ae:7f:ce:
                    9b:0e:fd:40:c0:e7:b2:6d:9e:71:91:ea:0e:37:a2:
                    c1:1f:b7:03:4c:62:a1:38:3e:da:97:86:a6:b2:8a:
                    23:a6:44:32:f6:12:2f:27:95:70:52:d9:56:9d:0d:
                    09:f1:7b:37:4b:ee:70:28:ac:f7:4d:5d:e6:c0:fd:
                    1f:30:5a:4c:2f:51:09:e0:95:3f:ae:d4:d0:1c:0f:
                    f1:a0:c3:4b:eb:2b:6f:ef:58:49:63:64:49:ad:04:
                    a8:1d:69:7a:9a:6f:33:95:f1:0e:40:2d:9c:18:2f:
                    c1:74:6b:ee:03:56:7a:ee:fb:6b:77:cb:f0:05:2c:
                    2f:a5:b1
                Exponent: 65537 (0x10001)
    Signature Algorithm: sha256WithRSAEncryption
         58:1d:b6:e3:87:ae:a8:24:ac:96:a0:d9:ab:63:f2:8a:9e:09:
         4e:76:87:bb:d8:d1:0c:78:be:66:62:f0:9a:b9:47:71:d1:bb:
         bf:38:ff:15:27:41:fc:6b:24:c8:38:17:df:3e:78:c6:ca:82:
         0b:6f:84:d6:8f:71:b1:20:9b:92:24:ef:9b:3d:ad:34:bc:cf:
         00:cf:66:0f:59:54:22:e1:eb:ac:31:f4:a6:e9:78:b4:c1:c9:
         b6:47:bc:3e:28:f5:4f:06:1a:db:7e:8f:ef:8c:8b:d7:77:f7:
         6b:d4:c2:83:dc:ce:92:02:3c:08:d1:60:1f:37:7d:ec:4b:26:
         73:eb:36:e3:e0:c3:b2:de:2c:8c:46:37:dc:8d:ae:ce:22:3a:
         b5:79:c8:a3:1e:e5:36:5e:7c:28:9a:84:e6:f5:0e:9a:bd:d2:
         63:22:a2:e0:1d:7e:7d:9a:ad:4c:e6:f8:ab:94:41:8e:34:e5:
         58:82:9e:37:6f:71:4a:b9:ec:46:b1:3d:8d:9a:c8:9f:ea:f1:
         aa:4e:8f:72:1d:1e:de:96:9c:1c:c9:cb:cd:e4:99:67:9e:80:
         d3:47:32:51:2a:3a:cf:68:88:14:10:fd:4d:c4:f0:11:1b:ae:
         24:7d:58:51:1b:11:0d:c5:b3:b4:6f:f9:44:d5:21:e8:dc:81:
         d1:14:95:45:13:a8:39:69:6a:04:55:9f:ef:66:cb:f7:f0:6b:
         c2:b0:b3:0b:27:a7:ea:cc:57:96:f6:d1:e7:24:ce:e5:f3:e5:
         33:9e:68:c4:a7:ad:71:6a:88:c6:83:0a:dd:a6:2e:d1:cd:d0:
         a6:9a:76:2b:e3:19:53:b3:e9:c2:b8:ef:b6:0c:3d:6e:a2:a6:
         8e:30:ea:2a:63:ca:0d:a7:61:3c:95:42:11:32:db:a9:00:73:
         39:d8:33:d1:95:09:16:e2:28:96:8f:e6:fe:19:3e:e3:59:6d:
         b6:fa:50:7a:a5:48:f0:02:ee:16:a0:3a:75:6f:39:38:f6:d4:
         ad:4e:50:a0:46:5e:d7:c2:82:e0:fb:a3:87:82:b5:79:14:92:
         55:a0:8c:34:11:2e:ec:e6:29:66:d4:76:21:80:e7:72:3f:8d:
         67:88:95:9b:5c:a9:d9:a0:69:7c:4b:2a:2b:04:fd:05:76:d3:
         c7:c6:6b:d1:48:ec:f0:9b:5b:ff:78:75:5b:4a:fa:96:5d:77:
         5e:e2:0d:cb:f3:56:b5:86:f7:34:e4:01:1f:1e:75:38:e6:d5:
         92:1c:a9:59:7c:30:37:c4:41:71:24:10:9d:10:bf:37:ef:78:
         da:99:85:ba:9e:a9:a1:77:09:b6:7a:69:e3:07:fd:61:3a:fa:
         16:7f:2f:8a:52:33:31:5c
-----BEGIN TRUSTED CERTIFICATE-----
MIIE5jCCAs4CCQCF/s6No6wNajANBgkqhkiG9w0BAQsFADA1MSAwHgYDVQQDDBdB
c3RlcmlzayBQcml2YXRlIENBIGNhMjERMA8GA1UECgwIQXN0ZXJpc2swHhcNMTgx
MjExMTMxNTI5WhcNMjgxMjA4MTMxNTI5WjA1MSAwHgYDVQQDDBdBc3RlcmlzayBQ
cml2YXRlIENBIGNhMjERMA8GA1UECgwIQXN0ZXJpc2swggIiMA0GCSqGSIb3DQEB
AQUAA4ICDwAwggIKAoICAQC60ZimvgTCBu6vt8Nt34Sq7Y8USTT8961F58cIlsXz
XV4t80Taa+P5jtzjMVk28HjBGOayiLBBxwtQik/zGM9/Ut8G+/nlH9eoJg0byzNu
AiSe0AjMX8zIXxsjIQuvZxsTWkDIZnGcpuxj1Ww0v+Z6CmCGckkRXa0/HpzfVy/J
pTPPuoDHxd2xyIP12KdX1zAbeRGa3ByfnUIVqVNwXK2u8Lqw7VLNbrtYmIwXkgFZ
mGwohvG33zt/SvvY1KjWacC2kvR4x9prhDCbWjH4653csw+EFxItZI7h9z+1QWAa
2HFZcAGeifhbLBWAA9kNr8wlxjpG5/HdaqxGRBs7ozhC++wjDi+MH6jnHICotkrO
s/sMKJQZvLGLAuz2b8V9RbVFnbyF9bGLpKsv0YsHL4KjpPgApl3IwCZC5LYeqjLD
RHxmX5RFxPKpMwjA+Y5VCPcJHIMppQ2sb5yQOctMEV5PTiEUXhmRxeP+rY/gNQ9U
5cVplsYc4vCScDnsO+hTnRdMia5/zpsO/UDA57JtnnGR6g43osEftwNMYqE4PtqX
hqayiiOmRDL2Ei8nlXBS2VadDQnxezdL7nAorPdNXebA/R8wWkwvUQnglT+u1NAc
D/Ggw0vrK2/vWEljZEmtBKgdaXqabzOV8Q5ALZwYL8F0a+4DVnru+2t3y/AFLC+l
sQIDAQABMA0GCSqGSIb3DQEBCwUAA4ICAQBYHbbjh66oJKyWoNmrY/KKnglOdoe7
2NEMeL5mYvCauUdx0bu/OP8VJ0H8ayTIOBffPnjGyoILb4TWj3GxIJuSJO+bPa00
vM8Az2YPWVQi4eusMfSm6Xi0wcm2R7w+KPVPBhrbfo/vjIvXd/dr1MKD3M6SAjwI
0WAfN33sSyZz6zbj4MOy3iyMRjfcja7OIjq1ecijHuU2XnwomoTm9Q6avdJjIqLg
HX59mq1M5virlEGONOVYgp43b3FKuexGsT2Nmsif6vGqTo9yHR7elpwcycvN5Jln
noDTRzJRKjrPaIgUEP1NxPARG64kfVhRGxENxbO0b/lE1SHo3IHRFJVFE6g5aWoE
VZ/vZsv38GvCsLMLJ6fqzFeW9tHnJM7l8+UznmjEp61xaojGgwrdpi7RzdCmmnYr
4xlTs+nCuO+2DD1uoqaOMOoqY8oNp2E8lUIRMtupAHM52DPRlQkW4iiWj+b+GT7j
WW22+lB6pUjwAu4WoDp1bzk49tStTlCgRl7XwoLg+6OHgrV5FJJVoIw0ES7s5ilm
1HYhgOdyP41niJWbXKnZoGl8SyorBP0FdtPHxmvRSOzwm1v/eHVbSvqWXXde4g3L
81a1hvc05AEfHnU45tWSHKlZfDA3xEFxJBCdEL8373jamYW6nqmhdwm2emnjB/1h
OvoWfy+KUjMxXA==
-----END TRUSTED CERTIFICATE-----
