Certificate:
    Data:
        Version: 1 (0x0)
        Serial Number:
            c6:83:cf:94:7a:51:49:45
    Signature Algorithm: sha256WithRSAEncryption
        Issuer: CN = Asterisk Private CA ca1, O = Asterisk
        Validity
            Not Before: Dec  6 22:22:54 2017 GMT
            Not After : Dec  4 22:22:54 2027 GMT
        Subject: CN = Asterisk Private CA ca1, O = Asterisk
        Subject Public Key Info:
            Public Key Algorithm: rsaEncryption
                Public-Key: (4096 bit)
                Modulus:
                    00:c5:a7:cd:49:08:aa:14:b9:ed:50:00:cf:8d:8d:
                    78:8f:dd:b6:ba:75:d5:71:41:b9:78:5f:b5:45:fd:
                    88:ca:82:a4:9a:81:cd:4c:9e:58:b8:3d:f8:ef:4e:
                    65:22:b5:1c:d3:ab:26:5b:22:c8:6c:b2:ce:fc:9f:
                    d1:52:7c:cd:db:d9:60:92:af:56:b4:70:b8:6c:ca:
                    d9:cb:82:fa:7e:a1:d4:c0:0a:48:42:a4:f7:ae:47:
                    0d:8d:4c:66:7d:41:d0:8c:1f:93:fa:07:67:be:eb:
                    99:37:e1:63:57:87:91:cb:0d:d3:e0:0a:6a:26:42:
                    10:51:92:46:58:a4:13:61:4e:ad:82:d1:3c:24:ce:
                    b0:c7:30:59:a4:a2:72:98:49:c1:73:c8:b8:40:12:
                    d2:e6:b3:e9:4f:56:f6:be:dc:93:5e:a9:77:e7:fa:
                    90:29:0b:fd:54:8a:94:ac:96:b6:de:09:14:75:35:
                    d7:6e:e2:53:cc:3a:6d:0c:20:f6:b3:b4:22:d8:00:
                    2c:bb:28:d4:84:09:3a:9c:21:27:3a:81:13:7a:0f:
                    d1:9c:3e:8b:f6:fa:3a:b6:af:82:a1:3f:5c:c0:6b:
                    c3:04:36:7d:fc:6c:41:41:da:b4:97:8b:07:2f:8b:
                    38:89:d2:3f:e1:a1:4f:26:a3:87:99:ad:bc:f3:1a:
                    05:7e:5c:a5:05:8f:c7:e4:c0:01:76:91:e5:8c:5b:
                    5e:c0:d9:64:c1:10:c3:2b:3d:d9:23:28:b2:e8:4a:
                    43:44:a7:ac:be:89:75:4f:08:5b:97:86:c3:3c:88:
                    3b:16:67:4f:9f:2f:d0:4b:97:ab:f8:b1:c5:a0:7e:
                    e8:79:e6:6f:77:d6:86:d2:60:00:2c:78:1d:fb:eb:
                    bc:d0:25:07:34:e2:fc:85:ea:58:9e:15:73:65:92:
                    04:68:8b:1a:d5:0a:a3:90:df:4e:4e:94:fa:c5:74:
                    28:0e:77:20:6c:09:84:0e:54:3e:00:db:1f:8a:90:
                    d9:12:a1:ad:9f:67:ae:fa:8c:9b:72:51:a9:78:65:
                    84:ef:99:de:59:d3:24:64:7b:19:8c:de:ca:32:52:
                    16:82:66:d7:d8:c2:55:f3:78:fd:a5:b7:7c:b3:87:
                    ac:c7:c8:6f:d7:b6:a5:b0:d7:4a:e5:1a:03:ef:47:
                    f1:33:66:b7:be:d7:75:79:27:9f:6c:13:b1:6f:3f:
                    df:b7:be:3b:31:17:12:e4:67:48:11:04:9e:35:4b:
                    78:8f:e4:dd:a4:93:7c:50:ef:51:08:90:27:56:5f:
                    8e:d1:bb:6f:65:90:4d:1e:ff:1e:56:0d:e2:05:df:
                    24:6f:de:7d:48:c4:7a:c6:59:45:a0:dd:91:6b:a2:
                    3e:fa:ad
                Exponent: 65537 (0x10001)
    Signature Algorithm: sha256WithRSAEncryption
         22:26:40:2e:16:5d:7c:a9:28:b3:d6:d4:68:f4:fb:72:3f:31:
         4e:26:bb:e6:28:66:6c:d8:80:d9:5b:2c:64:d6:b0:e1:c0:24:
         46:bf:2c:c9:70:88:fe:9c:95:e3:56:15:09:a7:34:34:07:cd:
         2d:e6:81:02:5a:53:7c:83:fd:0d:0d:12:75:12:dc:5a:d0:4a:
         56:c3:4f:3e:d7:7e:47:45:e4:64:30:60:6d:41:cd:24:51:3c:
         2d:ee:1f:58:4c:6b:5b:5a:83:71:f1:ec:69:91:70:71:fd:35:
         d4:99:82:e6:d4:0a:54:76:a8:7e:b9:4f:2b:a3:dc:54:27:38:
         89:3b:4d:6a:cc:03:b9:1d:46:ae:61:cd:4c:cb:18:19:af:dd:
         27:26:f7:2a:b7:35:d0:5c:74:e0:db:27:a8:9a:1b:67:01:e2:
         23:c5:26:71:2d:aa:bb:32:47:11:c0:b3:8d:21:6f:76:13:ce:
         de:18:c2:42:e8:a6:f8:dc:4b:92:80:f4:c0:f6:5d:eb:1e:30:
         60:a0:f0:79:99:e6:97:2b:3b:9b:f4:28:e9:4d:da:33:fa:92:
         2b:91:8d:4b:25:53:f0:ee:3a:cb:73:54:a5:2b:40:37:b2:24:
         01:2d:cd:e6:6e:e4:45:e2:c8:7d:ba:56:84:94:3e:29:da:b1:
         c8:c2:39:66:00:b2:0e:30:c3:8d:3c:3b:35:9f:93:cd:75:59:
         7d:87:74:da:e5:2f:bb:ec:ee:e4:6d:d4:f6:7f:78:10:8b:86:
         f2:f1:bc:39:de:73:9f:7a:69:a9:4a:bd:66:25:ad:08:83:06:
         00:1f:df:74:90:e6:67:49:15:2a:f0:76:77:08:ff:d1:89:9e:
         f4:dd:91:a2:71:09:3f:27:ca:5c:f6:a8:fb:89:b0:09:3a:f2:
         bc:14:fb:77:2c:f2:3f:71:47:ce:6b:f6:33:8f:3f:11:cd:13:
         6f:62:c7:f0:28:90:e3:80:38:b7:9c:da:88:9c:45:9e:30:23:
         55:24:0a:9f:4a:d1:c3:35:74:7b:3f:b3:dc:50:d4:d3:8e:fd:
         2b:1b:5b:58:34:c0:5e:fb:65:b3:0b:11:3f:9a:5a:1c:d9:ed:
         c0:a5:e8:27:cf:25:d7:3a:a3:db:c3:cf:69:26:fd:49:3d:f2:
         35:8e:32:9d:c4:36:dc:21:8d:56:8e:b9:7c:9f:bb:f0:f5:d9:
         e3:6e:8f:04:a9:e2:d7:e8:d1:2f:37:24:92:74:65:d8:38:bb:
         25:e6:6d:b7:c4:fe:70:e3:f0:86:44:2a:ff:c0:42:0f:3a:f5:
         63:32:ae:2c:b2:b4:58:10:f2:ee:a2:71:9f:77:8f:c1:d7:84:
         5f:26:b2:1f:6f:77:9c:8f
-----BEGIN TRUSTED CERTIFICATE-----
MIIE5jCCAs4CCQDGg8+UelFJRTANBgkqhkiG9w0BAQsFADA1MSAwHgYDVQQDDBdB
c3RlcmlzayBQcml2YXRlIENBIGNhMTERMA8GA1UECgwIQXN0ZXJpc2swHhcNMTcx
MjA2MjIyMjU0WhcNMjcxMjA0MjIyMjU0WjA1MSAwHgYDVQQDDBdBc3RlcmlzayBQ
cml2YXRlIENBIGNhMTERMA8GA1UECgwIQXN0ZXJpc2swggIiMA0GCSqGSIb3DQEB
AQUAA4ICDwAwggIKAoICAQDFp81JCKoUue1QAM+NjXiP3ba6ddVxQbl4X7VF/YjK
gqSagc1Mnli4PfjvTmUitRzTqyZbIshsss78n9FSfM3b2WCSr1a0cLhsytnLgvp+
odTACkhCpPeuRw2NTGZ9QdCMH5P6B2e+65k34WNXh5HLDdPgCmomQhBRkkZYpBNh
Tq2C0TwkzrDHMFmkonKYScFzyLhAEtLms+lPVva+3JNeqXfn+pApC/1UipSslrbe
CRR1Nddu4lPMOm0MIPaztCLYACy7KNSECTqcISc6gRN6D9GcPov2+jq2r4KhP1zA
a8MENn38bEFB2rSXiwcviziJ0j/hoU8mo4eZrbzzGgV+XKUFj8fkwAF2keWMW17A
2WTBEMMrPdkjKLLoSkNEp6y+iXVPCFuXhsM8iDsWZ0+fL9BLl6v4scWgfuh55m93
1obSYAAseB3767zQJQc04vyF6lieFXNlkgRoixrVCqOQ305OlPrFdCgOdyBsCYQO
VD4A2x+KkNkSoa2fZ676jJtyUal4ZYTvmd5Z0yRkexmM3soyUhaCZtfYwlXzeP2l
t3yzh6zHyG/XtqWw10rlGgPvR/EzZre+13V5J59sE7FvP9+3vjsxFxLkZ0gRBJ41
S3iP5N2kk3xQ71EIkCdWX47Ru29lkE0e/x5WDeIF3yRv3n1IxHrGWUWg3ZFroj76
rQIDAQABMA0GCSqGSIb3DQEBCwUAA4ICAQAiJkAuFl18qSiz1tRo9PtyPzFOJrvm
KGZs2IDZWyxk1rDhwCRGvyzJcIj+nJXjVhUJpzQ0B80t5oECWlN8g/0NDRJ1Etxa
0EpWw08+135HReRkMGBtQc0kUTwt7h9YTGtbWoNx8expkXBx/TXUmYLm1ApUdqh+
uU8ro9xUJziJO01qzAO5HUauYc1MyxgZr90nJvcqtzXQXHTg2yeomhtnAeIjxSZx
Laq7MkcRwLONIW92E87eGMJC6Kb43EuSgPTA9l3rHjBgoPB5meaXKzub9CjpTdoz
+pIrkY1LJVPw7jrLc1SlK0A3siQBLc3mbuRF4sh9ulaElD4p2rHIwjlmALIOMMON
PDs1n5PNdVl9h3Ta5S+77O7kbdT2f3gQi4by8bw53nOfemmpSr1mJa0IgwYAH990
kOZnSRUq8HZ3CP/RiZ703ZGicQk/J8pc9qj7ibAJOvK8FPt3LPI/cUfOa/Yzjz8R
zRNvYsfwKJDjgDi3nNqInEWeMCNVJAqfStHDNXR7P7PcUNTTjv0rG1tYNMBe+2Wz
CxE/mloc2e3ApegnzyXXOqPbw89pJv1JPfI1jjKdxDbcIY1Wjrl8n7vw9dnjbo8E
qeLX6NEvNySSdGXYOLsl5m23xP5w4/CGRCr/wEIPOvVjMq4ssrRYEPLuonGfd4/B
14RfJrIfb3ecjw==
-----END TRUSTED CERTIFICATE-----
Certificate:
    Data:
        Version: 1 (0x0)
        Serial Number:
            b4:f8:dc:e4:55:d0:6c:45
    Signature Algorithm: sha256WithRSAEncryption
        Issuer: CN = Asterisk Private CA ca2, O = Asterisk
        Validity
            Not Before: Dec  6 22:22:55 2017 GMT
            Not After : Dec  4 22:22:55 2027 GMT
        Subject: CN = Asterisk Private CA ca2, O = Asterisk
        Subject Public Key Info:
            Public Key Algorithm: rsaEncryption
                Public-Key: (4096 bit)
                Modulus:
                    00:bc:8c:e4:37:a4:9b:8e:6c:b9:b0:1b:ae:1b:82:
                    68:4d:f7:4b:b9:25:6a:c2:14:45:4c:44:a0:67:ee:
                    19:49:bd:6b:0d:30:05:26:d7:17:91:50:1c:95:30:
                    9e:84:ef:7e:39:fc:15:8f:3c:f1:4c:04:aa:51:0c:
                    d5:ec:e7:4a:81:c7:45:dd:e0:4f:50:cb:69:3c:05:
                    d6:0c:2e:d1:6c:fe:17:1b:5a:13:e3:c8:46:1b:70:
                    65:35:8d:e2:3a:2e:32:51:6f:38:da:ea:cc:4e:eb:
                    60:24:ab:00:9e:e9:5d:8b:a9:4a:3c:d9:ad:0f:ff:
                    4e:5e:de:7f:6e:45:c6:4b:bd:18:d1:ff:44:1d:4f:
                    f8:0d:0e:8a:db:96:87:08:5a:c5:45:f5:61:7e:33:
                    64:68:9a:4a:99:59:cd:f6:60:32:71:54:95:22:c2:
                    99:5c:2b:4c:08:f8:48:69:65:c5:ed:29:56:fb:b3:
                    fb:16:72:ff:a8:aa:f8:f0:e5:36:3f:b6:81:ae:3c:
                    b6:81:dd:df:b5:ed:82:4f:8c:cb:78:34:93:24:a5:
                    2e:20:09:94:52:ef:d2:ca:8a:db:87:4b:21:72:ee:
                    53:ef:81:50:f2:1b:7d:7b:5e:e8:9e:71:dd:db:e8:
                    ac:60:a4:07:a0:05:df:b5:4e:06:c8:96:96:5b:3b:
                    ca:f3:41:ef:4c:1f:a0:d8:f0:ff:8a:91:06:25:c5:
                    08:c2:5c:a5:d5:d1:b1:7a:d8:ef:b0:41:a5:61:dc:
                    b7:91:2e:04:f6:60:52:c0:a6:ec:b1:14:e3:45:c1:
                    b4:40:06:d3:39:d9:23:3f:88:ad:31:da:5f:0d:c8:
                    67:d5:ed:04:4c:e4:8f:40:41:66:23:a3:46:61:8b:
                    2d:0f:89:b5:46:b5:8a:e3:06:5d:89:b9:c9:06:f0:
                    61:7b:d5:0f:72:18:44:e6:88:4f:e5:0e:34:81:bb:
                    bd:81:3f:ce:f1:b9:18:cf:b6:c6:ea:c7:43:3f:a6:
                    04:00:56:c0:58:36:28:39:49:1d:2a:d1:3d:e0:be:
                    99:d6:75:99:4d:5e:5a:25:c5:31:9a:1a:2e:58:45:
                    e3:16:b2:12:1f:23:0c:f3:00:2d:2f:22:ba:ae:4e:
                    b4:69:14:84:d5:31:e4:73:b0:90:45:92:de:b9:97:
                    49:8d:32:f6:3b:60:d2:bb:1a:f9:6a:dd:0e:ee:4c:
                    28:fa:89:b0:57:1c:fa:d3:5f:c6:da:91:0f:25:31:
                    ee:88:76:d9:98:44:ab:e0:7f:d3:92:67:dd:bb:10:
                    1c:a6:44:e4:e7:d7:5f:0c:bb:fb:df:2e:ae:40:12:
                    54:1b:88:a2:91:3c:20:c8:f8:1e:4c:2f:57:56:c3:
                    e0:78:ab
                Exponent: 65537 (0x10001)
    Signature Algorithm: sha256WithRSAEncryption
         2f:a9:8f:ed:ac:08:0c:dc:2e:a1:dc:16:53:d0:61:a9:e8:9f:
         51:da:0c:49:ac:0d:d3:99:52:14:b5:90:62:1f:f4:20:0f:c8:
         91:da:0c:e7:d9:d1:78:02:60:c0:26:2e:b3:cf:ea:90:0d:d2:
         5f:24:d4:8b:68:0a:47:61:a5:98:b7:ff:75:51:0c:d5:59:66:
         c0:81:80:07:1c:fb:d5:af:a2:c5:67:8a:ad:e3:93:6f:62:16:
         a8:41:85:95:81:c8:4c:f3:14:52:a0:a9:e4:af:59:66:91:66:
         3f:6f:29:a5:eb:7a:75:bf:67:0c:a9:9a:d1:0e:fa:3c:0d:78:
         09:e4:34:5d:dd:2b:09:ed:6b:a1:4b:77:58:81:f9:7f:88:bf:
         48:9e:ca:28:74:c8:6b:e3:bf:a4:71:8d:d3:14:be:cb:11:d4:
         e2:40:15:3e:c4:64:c3:25:ae:96:0c:cf:3c:91:6b:d9:e8:24:
         61:34:bb:c1:50:44:8b:27:25:73:fc:25:1b:26:f9:a0:3b:fb:
         25:ac:46:41:ac:d7:31:84:77:bd:82:f8:a5:2f:ec:cc:db:54:
         34:b5:f9:c8:9e:29:be:cf:e9:05:8e:c1:9a:03:a6:93:62:f5:
         9a:80:6b:71:31:41:53:96:c0:4c:e1:dc:fb:04:ad:52:52:b8:
         1a:d5:37:ca:ba:07:91:7d:cf:3b:51:fb:0e:43:26:0a:fa:50:
         14:1f:2b:33:d2:e7:ce:c5:d4:1a:c2:80:9d:83:cb:82:2b:cb:
         53:09:ea:1e:3a:b9:73:0f:37:af:49:08:79:03:5b:bd:93:1d:
         28:26:99:a7:41:7e:81:0d:bc:09:37:a1:95:a3:a1:35:aa:2d:
         3b:f4:34:ba:d2:9c:28:12:57:44:53:8b:e3:87:72:41:e4:a5:
         5a:57:12:11:77:9a:65:ea:68:0c:3e:cd:d9:70:8d:89:c2:4f:
         03:9c:0b:dd:a3:31:b9:ad:fb:0a:5f:0c:d4:09:fe:38:16:d8:
         5e:f8:55:fc:48:7a:e9:89:3c:1d:b0:f0:6e:fb:cd:88:31:86:
         13:47:1c:eb:d9:d2:be:3c:91:67:ea:79:70:e6:06:11:8e:fe:
         01:86:05:a2:b6:34:9e:28:2e:a8:df:1b:65:2c:ce:fa:51:5b:
         d3:f9:bd:cb:00:50:da:5f:b2:c2:91:6f:30:fd:51:6e:97:5e:
         4f:99:6d:08:c0:be:5a:62:9f:4d:9f:96:e1:7f:91:3f:fb:50:
         2f:71:1d:db:11:39:dd:c6:8d:7d:b3:a7:78:4a:1f:af:67:06:
         a2:a8:d7:be:0d:04:a2:1c:bb:27:ab:5f:95:db:0b:60:a0:7f:
         8b:e4:f5:56:db:ff:ce:a1
-----BEGIN TRUSTED CERTIFICATE-----
MIIE5jCCAs4CCQC0+NzkVdBsRTANBgkqhkiG9w0BAQsFADA1MSAwHgYDVQQDDBdB
c3RlcmlzayBQcml2YXRlIENBIGNhMjERMA8GA1UECgwIQXN0ZXJpc2swHhcNMTcx
MjA2MjIyMjU1WhcNMjcxMjA0MjIyMjU1WjA1MSAwHgYDVQQDDBdBc3RlcmlzayBQ
cml2YXRlIENBIGNhMjERMA8GA1UECgwIQXN0ZXJpc2swggIiMA0GCSqGSIb3DQEB
AQUAA4ICDwAwggIKAoICAQC8jOQ3pJuObLmwG64bgmhN90u5JWrCFEVMRKBn7hlJ
vWsNMAUm1xeRUByVMJ6E7345/BWPPPFMBKpRDNXs50qBx0Xd4E9Qy2k8BdYMLtFs
/hcbWhPjyEYbcGU1jeI6LjJRbzja6sxO62AkqwCe6V2LqUo82a0P/05e3n9uRcZL
vRjR/0QdT/gNDorblocIWsVF9WF+M2RomkqZWc32YDJxVJUiwplcK0wI+EhpZcXt
KVb7s/sWcv+oqvjw5TY/toGuPLaB3d+17YJPjMt4NJMkpS4gCZRS79LKituHSyFy
7lPvgVDyG317Xuiecd3b6KxgpAegBd+1TgbIlpZbO8rzQe9MH6DY8P+KkQYlxQjC
XKXV0bF62O+wQaVh3LeRLgT2YFLApuyxFONFwbRABtM52SM/iK0x2l8NyGfV7QRM
5I9AQWYjo0Zhiy0PibVGtYrjBl2JuckG8GF71Q9yGETmiE/lDjSBu72BP87xuRjP
tsbqx0M/pgQAVsBYNig5SR0q0T3gvpnWdZlNXlolxTGaGi5YReMWshIfIwzzAC0v
IrquTrRpFITVMeRzsJBFkt65l0mNMvY7YNK7Gvlq3Q7uTCj6ibBXHPrTX8bakQ8l
Me6IdtmYRKvgf9OSZ927EBymROTn118Mu/vfLq5AElQbiKKRPCDI+B5ML1dWw+B4
qwIDAQABMA0GCSqGSIb3DQEBCwUAA4ICAQAvqY/trAgM3C6h3BZT0GGp6J9R2gxJ
rA3TmVIUtZBiH/QgD8iR2gzn2dF4AmDAJi6zz+qQDdJfJNSLaApHYaWYt/91UQzV
WWbAgYAHHPvVr6LFZ4qt45NvYhaoQYWVgchM8xRSoKnkr1lmkWY/byml63p1v2cM
qZrRDvo8DXgJ5DRd3SsJ7WuhS3dYgfl/iL9InsoodMhr47+kcY3TFL7LEdTiQBU+
xGTDJa6WDM88kWvZ6CRhNLvBUESLJyVz/CUbJvmgO/slrEZBrNcxhHe9gvilL+zM
21Q0tfnInim+z+kFjsGaA6aTYvWagGtxMUFTlsBM4dz7BK1SUrga1TfKugeRfc87
UfsOQyYK+lAUHysz0ufOxdQawoCdg8uCK8tTCeoeOrlzDzevSQh5A1u9kx0oJpmn
QX6BDbwJN6GVo6E1qi079DS60pwoEldEU4vjh3JB5KVaVxIRd5pl6mgMPs3ZcI2J
wk8DnAvdozG5rfsKXwzUCf44Fthe+FX8SHrpiTwdsPBu+82IMYYTRxzr2dK+PJFn
6nlw5gYRjv4BhgWitjSeKC6o3xtlLM76UVvT+b3LAFDaX7LCkW8w/VFul15PmW0I
wL5aYp9Nn5bhf5E/+1AvcR3bETndxo19s6d4Sh+vZwaiqNe+DQSiHLsnq1+V2wtg
oH+L5PVW2//OoQ==
-----END TRUSTED CERTIFICATE-----
